target datalayout = "e-m:e-p270:32:32-p271:32:32-p272:64:64-i64:64-i128:128-f80:128-n8:16:32:64-S128"
target triple = "x86_64-pc-linux-gnu"

%struct.archive_write = type { %struct.archive, i32, i64, i64, ptr, i64, ptr, ptr, ptr, ptr, ptr, i32, i32, ptr, ptr, ptr, ptr, ptr, ptr, ptr, ptr, ptr, ptr, ptr, ptr, ptr, ptr }
%struct.archive = type { i32, i32, ptr, i32, ptr, i32, i32, ptr, %struct.archive_string, ptr, i32, i32, ptr, ptr, i64, i64, i64, i8, i64 }
%struct.archive_string = type { ptr, i64, i64 }
%struct.iso9660 = type { i64, i32, ptr, ptr, %struct.archive_string, i64, i32, %struct.archive_string, %struct.archive_string, ptr, ptr, %struct.anon, %struct.anon.0, %struct.archive_rb_tree, %struct.vdd, %struct.vdd, i32, i32, i32, %struct.archive_string, %struct.archive_string, %struct.archive_string, %struct.archive_string, %struct.archive_string, %struct.archive_string, %struct.archive_string, i32, %struct.anon.1, ptr, i32, [65536 x i8], i64, i32, i64, i64, i64, %struct.anon.2, %struct.iso_option }
%struct.anon = type { ptr, ptr }
%struct.anon.0 = type { ptr, ptr }
%struct.archive_rb_tree = type { ptr, ptr }
%struct.vdd = type { ptr, i32, ptr, i32, i32, i32, i32, i32, i32 }
%struct.anon.1 = type { i8, [64 x i8], i32, ptr, i64, i32, i32, i64, i64, %struct.z_stream_s, i32, i64, i32 }
%struct.z_stream_s = type { ptr, i32, i64, ptr, i32, i64, ptr, ptr, ptr, ptr, ptr, i32, i64, i64 }
%struct.anon.2 = type { %struct.archive_string, ptr, %struct.archive_string, ptr, i8, %struct.archive_string, i8, i8, i16, i16 }
%struct.iso_option = type { i32 }

@.str.57 = private unnamed_addr constant [79 x i8] c"Internal Programming error: iso9660:wb_consume() size=%jd, wbuff_remaining=%jd\00", align 1
@rrip_identifier = internal constant [11 x i8] c"RRIP_1991A\00", align 1
@rrip_descriptor = internal constant [85 x i8] c"THE ROCK RIDGE INTERCHANGE PROTOCOL PROVIDES SUPPORT FOR POSIX FILE SYSTEM SEMANTICS\00", align 16
@rrip_source = internal constant [136 x i8] c"PLEASE CONTACT DISC PUBLISHER FOR SPECIFICATION SOURCE.  SEE PUBLISHER IDENTIFIER IN PRIMARY VOLUME DESCRIPTOR FOR CONTACT INFORMATION.\00", align 16

; Function Attrs: nounwind uwtable
define internal i32 @wb_consume(ptr noundef %0, i64 noundef %1) #0 {
  %3 = alloca i32, align 4
  %4 = alloca ptr, align 8
  %5 = alloca i64, align 8
  %6 = alloca ptr, align 8
  %7 = alloca i32, align 4
  store ptr %0, ptr %4, align 8, !tbaa !9
  store i64 %1, ptr %5, align 8, !tbaa !154
  call void @llvm.lifetime.start.p0(i64 8, ptr %6) #13
  %8 = load ptr, ptr %4, align 8, !tbaa !9
  %9 = getelementptr inbounds nuw %struct.archive_write, ptr %8, i32 0, i32 15
  %10 = load ptr, ptr %9, align 8, !tbaa !120
  store ptr %10, ptr %6, align 8, !tbaa !22
  %11 = load i64, ptr %5, align 8, !tbaa !154
  %12 = load ptr, ptr %6, align 8, !tbaa !22
  %13 = getelementptr inbounds nuw %struct.iso9660, ptr %12, i32 0, i32 31
  %14 = load i64, ptr %13, align 8, !tbaa !53
  %15 = icmp ugt i64 %11, %14
  br i1 %15, label %21, label %16

16:                                               ; preds = %2
  %17 = load ptr, ptr %6, align 8, !tbaa !22
  %18 = getelementptr inbounds nuw %struct.iso9660, ptr %17, i32 0, i32 31
  %19 = load i64, ptr %18, align 8, !tbaa !53
  %20 = icmp eq i64 %19, 0
  br i1 %20, label %21, label %28

21:                                               ; preds = %16, %2
  %22 = load ptr, ptr %4, align 8, !tbaa !9
  %23 = getelementptr inbounds nuw %struct.archive_write, ptr %22, i32 0, i32 0
  %24 = load i64, ptr %5, align 8, !tbaa !154
  %25 = load ptr, ptr %6, align 8, !tbaa !22
  %26 = getelementptr inbounds nuw %struct.iso9660, ptr %25, i32 0, i32 31
  %27 = load i64, ptr %26, align 8, !tbaa !53
  call void (ptr, i32, ptr, ...) @archive_set_error(ptr noundef %23, i32 noundef -1, ptr noundef @.str.57, i64 noundef %24, i64 noundef %27)
  store i32 -30, ptr %3, align 4
  store i32 1, ptr %7, align 4
  br label %42

28:                                               ; preds = %16
  %29 = load i64, ptr %5, align 8, !tbaa !154
  %30 = load ptr, ptr %6, align 8, !tbaa !22
  %31 = getelementptr inbounds nuw %struct.iso9660, ptr %30, i32 0, i32 31
  %32 = load i64, ptr %31, align 8, !tbaa !53
  %33 = sub i64 %32, %29
  store i64 %33, ptr %31, align 8, !tbaa !53
  %34 = load ptr, ptr %6, align 8, !tbaa !22
  %35 = getelementptr inbounds nuw %struct.iso9660, ptr %34, i32 0, i32 31
  %36 = load i64, ptr %35, align 8, !tbaa !53
  %37 = icmp ult i64 %36, 2048
  br i1 %37, label %38, label %41

38:                                               ; preds = %28
  %39 = load ptr, ptr %4, align 8, !tbaa !9
  %40 = call i32 @wb_write_out(ptr noundef %39)
  store i32 %40, ptr %3, align 4
  store i32 1, ptr %7, align 4
  br label %42

41:                                               ; preds = %28
  store i32 0, ptr %3, align 4
  store i32 1, ptr %7, align 4
  br label %42

42:                                               ; preds = %41, %38, %21
  call void @llvm.lifetime.end.p0(i64 8, ptr %6) #13
  %43 = load i32, ptr %3, align 4
  ret i32 %43
}

; Function Attrs: inlinehint nounwind uwtable
define internal ptr @wb_buffptr(ptr noundef %0) #10 {
  %2 = alloca ptr, align 8
  %3 = alloca ptr, align 8
  store ptr %0, ptr %2, align 8, !tbaa !9
  call void @llvm.lifetime.start.p0(i64 8, ptr %3) #13
  %4 = load ptr, ptr %2, align 8, !tbaa !9
  %5 = getelementptr inbounds nuw %struct.archive_write, ptr %4, i32 0, i32 15
  %6 = load ptr, ptr %5, align 8, !tbaa !120
  store ptr %6, ptr %3, align 8, !tbaa !22
  %7 = load ptr, ptr %3, align 8, !tbaa !22
  %8 = getelementptr inbounds nuw %struct.iso9660, ptr %7, i32 0, i32 30
  %9 = load ptr, ptr %3, align 8, !tbaa !22
  %10 = getelementptr inbounds nuw %struct.iso9660, ptr %9, i32 0, i32 31
  %11 = load i64, ptr %10, align 8, !tbaa !53
  %12 = sub i64 65536, %11
  %13 = getelementptr inbounds nuw [65536 x i8], ptr %8, i64 0, i64 %12
  call void @llvm.lifetime.end.p0(i64 8, ptr %3) #13
  ret ptr %13
}

; Function Attrs: nounwind uwtable
define internal i32 @write_rr_ER(ptr noundef %0) #0 {
  %2 = alloca ptr, align 8
  %3 = alloca ptr, align 8
  store ptr %0, ptr %2, align 8, !tbaa !9
  call void @llvm.lifetime.start.p0(i64 8, ptr %3) #13
  %4 = load ptr, ptr %2, align 8, !tbaa !9
  %5 = call ptr @wb_buffptr(ptr noundef %4)
  store ptr %5, ptr %3, align 8, !tbaa !133
  %6 = load ptr, ptr %3, align 8, !tbaa !133
  call void @llvm.memset.p0.i64(ptr align 1 %6, i8 0, i64 2048, i1 false)
  %7 = load ptr, ptr %3, align 8, !tbaa !133
  %8 = getelementptr inbounds i8, ptr %7, i64 0
  store i8 69, ptr %8, align 1, !tbaa !117
  %9 = load ptr, ptr %3, align 8, !tbaa !133
  %10 = getelementptr inbounds i8, ptr %9, i64 1
  store i8 82, ptr %10, align 1, !tbaa !117
  %11 = load ptr, ptr %3, align 8, !tbaa !133
  %12 = getelementptr inbounds i8, ptr %11, i64 3
  store i8 1, ptr %12, align 1, !tbaa !117
  %13 = load ptr, ptr %3, align 8, !tbaa !133
  %14 = getelementptr inbounds i8, ptr %13, i64 2
  store i8 -19, ptr %14, align 1, !tbaa !117
  %15 = load ptr, ptr %3, align 8, !tbaa !133
  %16 = getelementptr inbounds i8, ptr %15, i64 4
  store i8 10, ptr %16, align 1, !tbaa !117
  %17 = load ptr, ptr %3, align 8, !tbaa !133
  %18 = getelementptr inbounds i8, ptr %17, i64 5
  store i8 84, ptr %18, align 1, !tbaa !117
  %19 = load ptr, ptr %3, align 8, !tbaa !133
  %20 = getelementptr inbounds i8, ptr %19, i64 6
  store i8 -121, ptr %20, align 1, !tbaa !117
  %21 = load ptr, ptr %3, align 8, !tbaa !133
  %22 = getelementptr inbounds i8, ptr %21, i64 7
  store i8 1, ptr %22, align 1, !tbaa !117
  %23 = load ptr, ptr %3, align 8, !tbaa !133
  %24 = getelementptr inbounds i8, ptr %23, i64 8
  %25 = load ptr, ptr %3, align 8, !tbaa !133
  %26 = getelementptr inbounds i8, ptr %25, i64 4
  %27 = load i8, ptr %26, align 1, !tbaa !117
  %28 = zext i8 %27 to i64
  call void @llvm.memcpy.p0.p0.i64(ptr align 1 %24, ptr align 1 @rrip_identifier, i64 %28, i1 false)
  %29 = load ptr, ptr %3, align 8, !tbaa !133
  %30 = load ptr, ptr %3, align 8, !tbaa !133
  %31 = getelementptr inbounds i8, ptr %30, i64 4
  %32 = load i8, ptr %31, align 1, !tbaa !117
  %33 = zext i8 %32 to i32
  %34 = add nsw i32 8, %33
  %35 = sext i32 %34 to i64
  %36 = getelementptr inbounds i8, ptr %29, i64 %35
  %37 = load ptr, ptr %3, align 8, !tbaa !133
  %38 = getelementptr inbounds i8, ptr %37, i64 5
  %39 = load i8, ptr %38, align 1, !tbaa !117
  %40 = zext i8 %39 to i64
  call void @llvm.memcpy.p0.p0.i64(ptr align 1 %36, ptr align 16 @rrip_descriptor, i64 %40, i1 false)
  %41 = load ptr, ptr %3, align 8, !tbaa !133
  %42 = load ptr, ptr %3, align 8, !tbaa !133
  %43 = getelementptr inbounds i8, ptr %42, i64 4
  %44 = load i8, ptr %43, align 1, !tbaa !117
  %45 = zext i8 %44 to i32
  %46 = add nsw i32 8, %45
  %47 = load ptr, ptr %3, align 8, !tbaa !133
  %48 = getelementptr inbounds i8, ptr %47, i64 5
  %49 = load i8, ptr %48, align 1, !tbaa !117
  %50 = zext i8 %49 to i32
  %51 = add nsw i32 %46, %50
  %52 = sext i32 %51 to i64
  %53 = getelementptr inbounds i8, ptr %41, i64 %52
  %54 = load ptr, ptr %3, align 8, !tbaa !133
  %55 = getelementptr inbounds i8, ptr %54, i64 6
  %56 = load i8, ptr %55, align 1, !tbaa !117
  %57 = zext i8 %56 to i64
  call void @llvm.memcpy.p0.p0.i64(ptr align 1 %53, ptr align 16 @rrip_source, i64 %57, i1 false)
  %58 = load ptr, ptr %2, align 8, !tbaa !9
  %59 = call i32 @wb_consume(ptr noundef %58, i64 noundef 2048)
  call void @llvm.lifetime.end.p0(i64 8, ptr %3) #13
  ret i32 %59
}