; Function Attrs: nounwind uwtable
define internal fastcc i32 @write_rr_ER(ptr noundef %0) unnamed_addr #0 {
  %2 = getelementptr i8, ptr %0, i64 248
  %.val = load ptr, ptr %2, align 8, !tbaa !69
  %3 = getelementptr inbounds nuw i8, ptr %.val, i64 732
  %4 = getelementptr inbounds nuw i8, ptr %.val, i64 66272
  %5 = load i64, ptr %4, align 8, !tbaa !50
  %6 = sub i64 65536, %5
  %7 = getelementptr inbounds nuw [65536 x i8], ptr %3, i64 0, i64 %6
  %8 = getelementptr inbounds nuw i8, ptr %7, i64 237
  tail call void @llvm.memset.p0.i64(ptr noundef nonnull align 1 dereferenceable(2048) %8, i8 0, i64 1811, i1 false)
  store i8 69, ptr %7, align 1, !tbaa !68
  %9 = getelementptr inbounds nuw i8, ptr %7, i64 1
  store i8 82, ptr %9, align 1, !tbaa !68
  %10 = getelementptr inbounds nuw i8, ptr %7, i64 3
  store i8 1, ptr %10, align 1, !tbaa !68
  %11 = getelementptr inbounds nuw i8, ptr %7, i64 2
  store i8 -19, ptr %11, align 1, !tbaa !68
  %12 = getelementptr inbounds nuw i8, ptr %7, i64 4
  store i8 10, ptr %12, align 1, !tbaa !68
  %13 = getelementptr inbounds nuw i8, ptr %7, i64 5
  store i8 84, ptr %13, align 1, !tbaa !68
  %14 = getelementptr inbounds nuw i8, ptr %7, i64 6
  store i8 -121, ptr %14, align 1, !tbaa !68
  %15 = getelementptr inbounds nuw i8, ptr %7, i64 7
  store i8 1, ptr %15, align 1, !tbaa !68
  %16 = getelementptr inbounds nuw i8, ptr %7, i64 8
  tail call void @llvm.memcpy.p0.p0.i64(ptr noundef nonnull align 1 dereferenceable(10) %16, ptr noundef nonnull align 1 dereferenceable(10) @rrip_identifier, i64 10, i1 false)
  %17 = getelementptr inbounds nuw i8, ptr %7, i64 18
  tail call void @llvm.memcpy.p0.p0.i64(ptr noundef nonnull align 1 dereferenceable(84) %17, ptr noundef nonnull align 16 dereferenceable(84) @rrip_descriptor, i64 84, i1 false)
  %18 = getelementptr inbounds nuw i8, ptr %7, i64 102
  tail call void @llvm.memcpy.p0.p0.i64(ptr noundef nonnull align 1 dereferenceable(135) %18, ptr noundef nonnull align 16 dereferenceable(135) @rrip_source, i64 135, i1 false)
  %19 = load ptr, ptr %2, align 8, !tbaa !69
  %20 = getelementptr inbounds nuw i8, ptr %19, i64 66272
  %21 = load i64, ptr %20, align 8, !tbaa !50
  %22 = icmp ult i64 %21, 2048
  br i1 %22, label %23, label %24

23:                                               ; preds = %1
  tail call void (ptr, i32, ptr, ...) @archive_set_error(ptr noundef nonnull %0, i32 noundef -1, ptr noundef nonnull @.str.57, i64 noundef 2048, i64 noundef %21) #23
  br label %wb_consume.exit

24:                                               ; preds = %1
  %25 = add i64 %21, -2048
  store i64 %25, ptr %20, align 8, !tbaa !50
  %26 = icmp ult i64 %25, 2048
  br i1 %26, label %27, label %wb_consume.exit

27:                                               ; preds = %24
  %28 = tail call fastcc i32 @wb_write_out(ptr noundef nonnull %0)
  br label %wb_consume.exit

wb_consume.exit:                                  ; preds = %23, %24, %27
  %.0.i = phi i32 [ -30, %23 ], [ %28, %27 ], [ 0, %24 ]
  ret i32 %.0.i
}